target datalayout = "e-m:e-p270:32:32-p271:32:32-p272:64:64-i64:64-i128:128-f80:128-n8:16:32:64-S128"
target triple = "x86_64-pc-linux-gnu"

%struct.Dec_Node_t_ = type { %struct.Dec_Edge_t_, %struct.Dec_Edge_t_, %union.anon, i32 }
%struct.Dec_Edge_t_ = type { i32 }
%union.anon = type { ptr }
%struct.Dec_Graph_t_ = type { i32, i32, i32, i32, ptr, %struct.Dec_Edge_t_ }
%struct.Vec_Ptr_t_ = type { i32, i32, ptr }

; Function Attrs: nounwind uwtable
define internal void @Dec_GraphFree(ptr noundef %0) #0 {
  %2 = alloca ptr, align 8
  store ptr %0, ptr %2, align 8
  %3 = load ptr, ptr %2, align 8
  %4 = getelementptr inbounds %struct.Dec_Graph_t_, ptr %3, i32 0, i32 4
  %5 = load ptr, ptr %4, align 8
  %6 = icmp ne ptr %5, null
  br i1 %6, label %7, label %13

7:                                                ; preds = %1
  %8 = load ptr, ptr %2, align 8
  %9 = getelementptr inbounds %struct.Dec_Graph_t_, ptr %8, i32 0, i32 4
  %10 = load ptr, ptr %9, align 8
  call void @free(ptr noundef %10) #5
  %11 = load ptr, ptr %2, align 8
  %12 = getelementptr inbounds %struct.Dec_Graph_t_, ptr %11, i32 0, i32 4
  store ptr null, ptr %12, align 8
  br label %14

13:                                               ; preds = %1
  br label %14

14:                                               ; preds = %13, %7
  %15 = load ptr, ptr %2, align 8
  %16 = icmp ne ptr %15, null
  br i1 %16, label %17, label %19

17:                                               ; preds = %14
  %18 = load ptr, ptr %2, align 8
  call void @free(ptr noundef %18) #5
  store ptr null, ptr %2, align 8
  br label %20

19:                                               ; preds = %14
  br label %20

20:                                               ; preds = %19, %17
  ret void
}

; Function Attrs: nounwind uwtable
define internal ptr @Vec_PtrEntry(ptr noundef %0, i32 noundef %1) #0 {
  %3 = alloca ptr, align 8
  %4 = alloca i32, align 4
  store ptr %0, ptr %3, align 8
  store i32 %1, ptr %4, align 4
  %5 = load ptr, ptr %3, align 8
  %6 = getelementptr inbounds %struct.Vec_Ptr_t_, ptr %5, i32 0, i32 2
  %7 = load ptr, ptr %6, align 8
  %8 = load i32, ptr %4, align 4
  %9 = sext i32 %8 to i64
  %10 = getelementptr inbounds ptr, ptr %7, i64 %9
  %11 = load ptr, ptr %10, align 8
  ret ptr %11
}

; Function Attrs: nounwind uwtable
define internal ptr @Dec_GraphNode(ptr noundef %0, i32 noundef %1) #0 {
  %3 = alloca ptr, align 8
  %4 = alloca i32, align 4
  store ptr %0, ptr %3, align 8
  store i32 %1, ptr %4, align 4
  %5 = load ptr, ptr %3, align 8
  %6 = getelementptr inbounds %struct.Dec_Graph_t_, ptr %5, i32 0, i32 4
  %7 = load ptr, ptr %6, align 8
  %8 = load i32, ptr %4, align 4
  %9 = sext i32 %8 to i64
  %10 = getelementptr inbounds %struct.Dec_Node_t_, ptr %7, i64 %9
  ret ptr %10
}

; Function Attrs: nounwind uwtable
define ptr @Dec_SopToAig(ptr noundef %0, ptr noundef %1, ptr noundef %2) #0 {
  %4 = alloca ptr, align 8
  %5 = alloca ptr, align 8
  %6 = alloca ptr, align 8
  %7 = alloca ptr, align 8
  %8 = alloca ptr, align 8
  %9 = alloca ptr, align 8
  %10 = alloca i32, align 4
  store ptr %0, ptr %4, align 8
  store ptr %1, ptr %5, align 8
  store ptr %2, ptr %6, align 8
  %11 = load ptr, ptr %5, align 8
  %12 = call ptr @Dec_Factor(ptr noundef %11)
  store ptr %12, ptr %8, align 8
  store i32 0, ptr %10, align 4
  br label %13

13:                                               ; preds = %31, %3
  %14 = load i32, ptr %10, align 4
  %15 = load ptr, ptr %8, align 8
  %16 = getelementptr inbounds %struct.Dec_Graph_t_, ptr %15, i32 0, i32 1
  %17 = load i32, ptr %16, align 4
  %18 = icmp slt i32 %14, %17
  br i1 %18, label %19, label %23

19:                                               ; preds = %13
  %20 = load ptr, ptr %8, align 8
  %21 = load i32, ptr %10, align 4
  %22 = call ptr @Dec_GraphNode(ptr noundef %20, i32 noundef %21)
  store ptr %22, ptr %9, align 8
  br label %23

23:                                               ; preds = %19, %13
  %24 = phi i1 [ false, %13 ], [ true, %19 ]
  br i1 %24, label %25, label %34

25:                                               ; preds = %23
  %26 = load ptr, ptr %6, align 8
  %27 = load i32, ptr %10, align 4
  %28 = call ptr @Vec_PtrEntry(ptr noundef %26, i32 noundef %27)
  %29 = load ptr, ptr %9, align 8
  %30 = getelementptr inbounds %struct.Dec_Node_t_, ptr %29, i32 0, i32 2
  store ptr %28, ptr %30, align 8
  br label %31

31:                                               ; preds = %25
  %32 = load i32, ptr %10, align 4
  %33 = add nsw i32 %32, 1
  store i32 %33, ptr %10, align 4
  br label %13, !llvm.loop !6

34:                                               ; preds = %23
  %35 = load ptr, ptr %4, align 8
  %36 = load ptr, ptr %8, align 8
  %37 = call ptr @Dec_GraphToNetwork(ptr noundef %35, ptr noundef %36)
  store ptr %37, ptr %7, align 8
  %38 = load ptr, ptr %8, align 8
  call void @Dec_GraphFree(ptr noundef %38)
  %39 = load ptr, ptr %7, align 8
  ret ptr %39
}