; Function Attrs: nounwind uwtable
define ptr @Dec_SopToAig(ptr noundef %0, ptr noundef %1, ptr noundef readonly captures(none) %2) local_unnamed_addr #0 {
  %4 = tail call ptr @Dec_Factor(ptr noundef %1) #7
  %5 = getelementptr inbounds nuw i8, ptr %4, i64 4
  %6 = load i32, ptr %5, align 4
  %7 = icmp sgt i32 %6, 0
  br i1 %7, label %.lr.ph, label %.critedge

.lr.ph:                                           ; preds = %3
  %8 = getelementptr i8, ptr %4, i64 16
  %9 = getelementptr i8, ptr %2, i64 8
  br label %10

10:                                               ; preds = %.lr.ph, %10
  %indvars.iv = phi i64 [ 0, %.lr.ph ], [ %indvars.iv.next, %10 ]
  %.val = load ptr, ptr %8, align 8
  %.val12 = load ptr, ptr %9, align 8
  %11 = getelementptr inbounds nuw ptr, ptr %.val12, i64 %indvars.iv
  %12 = load ptr, ptr %11, align 8
  %13 = getelementptr inbounds nuw %struct.Dec_Node_t_, ptr %.val, i64 %indvars.iv, i32 2
  store ptr %12, ptr %13, align 8
  %indvars.iv.next = add nuw nsw i64 %indvars.iv, 1
  %14 = load i32, ptr %5, align 4
  %15 = sext i32 %14 to i64
  %16 = icmp slt i64 %indvars.iv.next, %15
  br i1 %16, label %10, label %.critedge, !llvm.loop !6

.critedge:                                        ; preds = %10, %3
  %17 = tail call ptr @Dec_GraphToNetwork(ptr noundef %0, ptr noundef nonnull %4)
  %18 = getelementptr inbounds nuw i8, ptr %4, i64 16
  %19 = load ptr, ptr %18, align 8
  %.not.i = icmp eq ptr %19, null
  br i1 %.not.i, label %Dec_GraphFree.exit, label %20

20:                                               ; preds = %.critedge
  tail call void @free(ptr noundef nonnull %19) #7
  br label %Dec_GraphFree.exit

Dec_GraphFree.exit:                               ; preds = %.critedge, %20
  tail call void @free(ptr noundef nonnull %4) #7
  ret ptr %17
}